Certificate:
    Data:
        Version: 3 (0x2)
        Serial Number: 1 (0x1)
        Signature Algorithm: sha256WithRSAEncryption
        Issuer: CN=devcert
        Validity
            Not Before: Nov 29 17:49:19 2021 GMT
            Not After : Mar  3 17:49:19 2024 GMT
        Subject: CN=localhost
        Subject Public Key Info:
            Public Key Algorithm: rsaEncryption
                RSA Public-Key: (2048 bit)
                Modulus:
                    00:eb:af:6e:15:85:eb:7e:97:b9:1c:0d:7e:c4:54:
                    f0:05:60:eb:8d:ab:d2:e9:78:8f:b9:88:99:40:e9:
                    11:38:10:92:1c:a1:aa:4a:2f:e2:e3:ec:4e:64:d5:
                    08:a9:f3:df:22:4b:3d:2e:9b:d0:00:1b:0b:d7:a5:
                    b0:a6:63:cf:03:bb:7d:06:fe:b4:19:da:d5:04:3f:
                    24:c8:82:b9:b6:73:bc:d7:ad:b0:66:4c:11:4e:da:
                    02:b0:6e:57:f6:e3:6c:35:8b:ba:a8:65:d0:72:88:
                    7c:52:3a:02:09:dd:c7:b7:27:6c:b7:27:3a:28:5f:
                    c0:63:56:2a:a0:19:81:0e:4b:25:44:c3:30:f5:9c:
                    f5:09:6d:db:80:ce:15:75:41:12:2c:bd:a7:fb:20:
                    30:5e:5f:5e:ba:f2:8c:49:3d:fa:c5:91:f7:0f:66:
                    2d:d9:02:d4:a6:e1:e3:41:d7:72:aa:e5:06:30:1b:
                    b0:52:25:09:dc:48:57:f3:e3:f9:c2:b7:2a:8e:6b:
                    a4:0a:0f:7e:b2:1c:70:2f:52:68:27:14:d1:c8:4c:
                    3b:d0:20:cd:44:2b:21:ab:1c:55:58:5c:61:ff:cd:
                    3b:49:53:bc:5a:91:04:98:2d:ef:d8:d3:86:57:b2:
                    60:2c:15:46:00:74:1e:cd:19:02:8e:5f:3b:9d:30:
                    e4:65
                Exponent: 65537 (0x10001)
        X509v3 extensions:
            X509v3 Basic Constraints: critical
                CA:FALSE
            X509v3 Subject Key Identifier: 
                29:83:1A:DC:60:4F:99:DD:B9:BD:5C:87:08:E8:08:D5:A8:0A:0B:CD
            X509v3 Authority Key Identifier: 
                keyid:5B:CA:95:01:AC:6F:62:63:22:31:20:3A:9E:AD:AD:6E:6A:F3:89:6E
                DirName:/CN=devcert
                serial:41:B7:4E:69:18:B1:8F:06:5E:D2:C8:76:6A:01:3C:FC:F8:4F:5A:D0

            X509v3 Key Usage: critical
                Digital Signature, Key Encipherment
            X509v3 Extended Key Usage: 
                TLS Web Server Authentication
            X509v3 Subject Alternative Name: 
                DNS:localhost, DNS:*.localhost
    Signature Algorithm: sha256WithRSAEncryption
         20:2b:1e:01:22:df:8e:23:d4:5c:00:6e:bd:59:48:0c:10:a1:
         75:5a:25:4e:66:a1:ce:b0:92:76:88:12:f9:9e:a6:d3:ee:5b:
         a0:e8:2b:af:75:97:53:65:a5:02:b1:19:66:90:ed:b5:8c:49:
         dd:98:e8:1f:0e:2c:ec:a0:4b:a1:56:0a:70:1d:9b:9d:9c:56:
         68:f6:c0:b6:3c:9f:00:dc:02:57:9b:79:bc:8a:76:61:d8:c2:
         e4:3a:92:61:f2:6f:21:4a:04:b7:8b:4b:9a:1c:11:f3:47:81:
         fc:45:86:60:4d:f3:d4:66:4c:0d:59:17:3a:68:1e:df:47:08:
         c4:4e:8f:7c:aa:ef:5b:1a:d9:15:11:30:eb:d1:af:a8:f3:ad:
         ad:80:1e:69:cd:0a:c8:15:df:d0:61:d8:43:15:16:4f:2a:a1:
         a5:65:b5:11:56:8d:18:85:c1:02:01:9f:ab:0d:7d:4e:c5:90:
         be:7e:0f:b9:6f:27:c5:fb:aa:fe:26:cc:e8:40:86:1b:0c:51:
         55:bb:95:5c:bc:46:ed:4c:3a:ab:c6:0b:4d:c5:bb:ee:52:43:
         95:2b:81:33:48:45:81:44:ef:15:e7:91:65:21:97:30:86:ef:
         f4:b0:27:6f:95:cd:e5:21:95:be:93:43:26:55:6b:9d:d1:fd:
         01:49:62:21
-----BEGIN CERTIFICATE-----
MIIDaTCCAlGgAwIBAgIBATANBgkqhkiG9w0BAQsFADASMRAwDgYDVQQDDAdkZXZj
ZXJ0MB4XDTIxMTEyOTE3NDkxOVoXDTI0MDMwMzE3NDkxOVowFDESMBAGA1UEAwwJ
bG9jYWxob3N0MIIBIjANBgkqhkiG9w0BAQEFAAOCAQ8AMIIBCgKCAQEA669uFYXr
fpe5HA1+xFTwBWDrjavS6XiPuYiZQOkROBCSHKGqSi/i4+xOZNUIqfPfIks9LpvQ
ABsL16WwpmPPA7t9Bv60GdrVBD8kyIK5tnO8162wZkwRTtoCsG5X9uNsNYu6qGXQ
coh8UjoCCd3Htydstyc6KF/AY1YqoBmBDkslRMMw9Zz1CW3bgM4VdUESLL2n+yAw
Xl9euvKMST36xZH3D2Yt2QLUpuHjQddyquUGMBuwUiUJ3EhX8+P5wrcqjmukCg9+
shxwL1JoJxTRyEw70CDNRCshqxxVWFxh/807SVO8WpEEmC3v2NOGV7JgLBVGAHQe
zRkCjl87nTDkZQIDAQABo4HHMIHEMAwGA1UdEwEB/wQCMAAwHQYDVR0OBBYEFCmD
GtxgT5ndub1chwjoCNWoCgvNME0GA1UdIwRGMESAFFvKlQGsb2JjIjEgOp6trW5q
84luoRakFDASMRAwDgYDVQQDDAdkZXZjZXJ0ghRBt05pGLGPBl7SyHZqATz8+E9a
0DAOBgNVHQ8BAf8EBAMCBaAwEwYDVR0lBAwwCgYIKwYBBQUHAwEwIQYDVR0RBBow
GIIJbG9jYWxob3N0ggsqLmxvY2FsaG9zdDANBgkqhkiG9w0BAQsFAAOCAQEAICse
ASLfjiPUXABuvVlIDBChdVolTmahzrCSdogS+Z6m0+5boOgrr3WXU2WlArEZZpDt
tYxJ3ZjoHw4s7KBLoVYKcB2bnZxWaPbAtjyfANwCV5t5vIp2YdjC5DqSYfJvIUoE
t4tLmhwR80eB/EWGYE3z1GZMDVkXOmge30cIxE6PfKrvWxrZFREw69GvqPOtrYAe
ac0KyBXf0GHYQxUWTyqhpWW1EVaNGIXBAgGfqw19TsWQvn4PuW8nxfuq/ibM6ECG
GwxRVbuVXLxG7Uw6q8YLTcW77lJDlSuBM0hFgUTvFeeRZSGXMIbv9LAnb5XN5SGV
vpNDJlVrndH9AUliIQ==
-----END CERTIFICATE-----
